; Function Attrs: mustprogress uwtable
define noundef i32 @_ZN3zmq16tipc_connecter_t4openEv(ptr nocapture noundef nonnull align 8 dereferenceable(1544) %this) local_unnamed_addr #0 align 2 {
entry:
  %_s = getelementptr inbounds i8, ptr %this, i64 1472
  %0 = load i32, ptr %_s, align 8
  %cmp.not = icmp eq i32 %0, -1
  br i1 %cmp.not, label %do.end, label %if.then

if.then:                                          ; preds = %entry
  %1 = load ptr, ptr @stderr, align 8
  %call = tail call i32 (ptr, ptr, ...) @fprintf(ptr noundef %1, ptr noundef nonnull @.str.1, ptr noundef nonnull @.str.4, ptr noundef nonnull @.str.3, i32 noundef 83) #11
  %2 = load ptr, ptr @stderr, align 8
  %call2 = tail call i32 @fflush(ptr noundef %2)
  tail call void @_ZN3zmq9zmq_abortEPKc(ptr noundef nonnull @.str.4)
  br label %do.end

do.end:                                           ; preds = %entry, %if.then
  %_addr = getelementptr inbounds i8, ptr %this, i64 1464
  %3 = load ptr, ptr %_addr, align 8
  %resolved = getelementptr inbounds i8, ptr %3, i64 72
  %4 = load ptr, ptr %resolved, align 8
  %call3 = tail call noundef zeroext i1 @_ZNK3zmq14tipc_address_t9is_randomEv(ptr noundef nonnull align 4 dereferenceable(20) %4)
  br i1 %call3, label %if.then4, label %if.end6

if.then4:                                         ; preds = %do.end
  %call5 = tail call ptr @__errno_location() #12
  store i32 22, ptr %call5, align 4
  br label %return

if.end6:                                          ; preds = %do.end
  %call7 = tail call noundef i32 @_ZN3zmq11open_socketEiii(i32 noundef 30, i32 noundef 1, i32 noundef 0)
  store i32 %call7, ptr %_s, align 8
  %cmp10 = icmp eq i32 %call7, -1
  br i1 %cmp10, label %return, label %if.end12

if.end12:                                         ; preds = %if.end6
  tail call void @_ZN3zmq14unblock_socketEi(i32 noundef %call7)
  %5 = load i32, ptr %_s, align 8
  %6 = load ptr, ptr %_addr, align 8
  %resolved16 = getelementptr inbounds i8, ptr %6, i64 72
  %7 = load ptr, ptr %resolved16, align 8
  %call17 = tail call noundef ptr @_ZNK3zmq14tipc_address_t4addrEv(ptr noundef nonnull align 4 dereferenceable(20) %7)
  %8 = load ptr, ptr %_addr, align 8
  %resolved19 = getelementptr inbounds i8, ptr %8, i64 72
  %9 = load ptr, ptr %resolved19, align 8
  %call20 = tail call noundef i32 @_ZNK3zmq14tipc_address_t7addrlenEv(ptr noundef nonnull align 4 dereferenceable(20) %9)
  %call21 = tail call i32 @connect(i32 noundef %5, ptr noundef %call17, i32 noundef %call20)
  switch i32 %call21, label %if.end30 [
    i32 0, label %return
    i32 -1, label %land.lhs.true
  ]

land.lhs.true:                                    ; preds = %if.end12
  %call26 = tail call ptr @__errno_location() #12
  %10 = load i32, ptr %call26, align 4
  %cmp27 = icmp eq i32 %10, 4
  br i1 %cmp27, label %if.then28, label %if.end30

if.then28:                                        ; preds = %land.lhs.true
  store i32 115, ptr %call26, align 4
  br label %return

if.end30:                                         ; preds = %if.end12, %land.lhs.true
  br label %return

return:                                           ; preds = %if.end12, %if.end6, %if.end30, %if.then28, %if.then4
  %retval.0 = phi i32 [ -1, %if.then4 ], [ -1, %if.then28 ], [ -1, %if.end30 ], [ -1, %if.end6 ], [ %call21, %if.end12 ]
  ret i32 %retval.0
}